(lp1
I5816
aI7614
aI4366
aI4665
aI244
aI2715
aI7074
aI8275
aI7802
aI6865
aI5794
aI10476
aI4956
aI3926
aI8054
aI2133
aI10164
aI4927
aI4525
aI10220
aI2230
aI5862
aI11150
aI1136
aI548
aI11339
aI4986
aI984
aI9976
aI9594
aI246
aI6641
aI3910
aI2709
aI10826
aI1427
aI5136
aI7153
aI2442
aI11014
aI985
aI8837
aI10924
aI2629
aI8146
aI8100
aI11104
aI5391
aI10222
aI10844
aI7620
aI3657
aI2161
aI10265
aI855
aI2474
aI1675
aI5923
aI1896
aI8234
aI2058
aI7778
aI5206
aI7206
aI7617
aI4266
aI6844
aI2475
aI9739
aI8938
aI9144
aI9505
aI5936
aI951
aI9692
aI1889
aI6374
aI7938
aI8988
aI7497
aI8153
aI2023
aI1029
aI7524
aI4089
aI10560
aI4067
aI5759
aI72
aI2528
aI2523
aI145
aI9414
aI230
aI3612
aI9386
aI4786
aI7230
aI1354
aI7672
aI153
aI10009
aI9502
aI4106
aI4444
aI9643
aI7235
aI5484
aI8492
aI1041
aI4097
aI4434
aI8686
aI3644
aI2388
aI3716
aI10836
aI7886
aI2679
aI7159
aI8414
aI5457
aI10847
aI8504
aI1304
aI6400
aI9789
aI8313
aI2680
aI3725
aI10872
aI2962
a.